; Function Attrs: mustprogress nofree norecurse nosync nounwind willreturn memory(read, inaccessiblemem: none) uwtable
define noundef double @_ZN3gmx22ComputeDebyeScattering21computeIntensityZeroQEv(ptr nocapture noundef nonnull readonly align 8 dereferenceable(153) %0) local_unnamed_addr #9 align 2 {
  %2 = getelementptr inbounds i8, ptr %0, i64 152
  %3 = load i8, ptr %2, align 8
  %4 = trunc i8 %3 to i1
  br i1 %4, label %5, label %14

5:                                                ; preds = %1
  %6 = getelementptr inbounds i8, ptr %0, i64 128
  %7 = load ptr, ptr %6, align 8
  %8 = load ptr, ptr %7, align 8
  %9 = getelementptr inbounds i8, ptr %7, i64 8
  %10 = load ptr, ptr %9, align 8
  %.not5.i = icmp eq ptr %8, %10
  br i1 %.not5.i, label %_ZSt10accumulateIN9__gnu_cxx17__normal_iteratorIPdSt6vectorIdSaIdEEEEdET0_T_S8_S7_.exit, label %.lr.ph.i

.lr.ph.i:                                         ; preds = %5, %.lr.ph.i
  %.07.i = phi double [ %12, %.lr.ph.i ], [ 0.000000e+00, %5 ]
  %.sroa.02.06.i = phi ptr [ %13, %.lr.ph.i ], [ %8, %5 ]
  %11 = load double, ptr %.sroa.02.06.i, align 8
  %12 = fadd double %.07.i, %11
  %13 = getelementptr inbounds i8, ptr %.sroa.02.06.i, i64 8
  %.not.i = icmp eq ptr %13, %10
  br i1 %.not.i, label %_ZSt10accumulateIN9__gnu_cxx17__normal_iteratorIPdSt6vectorIdSaIdEEEEdET0_T_S8_S7_.exit, label %.lr.ph.i, !llvm.loop !15

14:                                               ; preds = %1
  %15 = getelementptr inbounds i8, ptr %0, i64 104
  %16 = load ptr, ptr %15, align 8
  %17 = getelementptr inbounds i8, ptr %0, i64 112
  %18 = load ptr, ptr %17, align 8
  %.not5.i5 = icmp eq ptr %16, %18
  br i1 %.not5.i5, label %_ZSt10accumulateIN9__gnu_cxx17__normal_iteratorIPdSt6vectorIdSaIdEEEEdET0_T_S8_S7_.exit, label %.lr.ph.i6

.lr.ph.i6:                                        ; preds = %14, %.lr.ph.i6
  %.07.i7 = phi double [ %20, %.lr.ph.i6 ], [ 0.000000e+00, %14 ]
  %.sroa.02.06.i8 = phi ptr [ %21, %.lr.ph.i6 ], [ %16, %14 ]
  %19 = load double, ptr %.sroa.02.06.i8, align 8
  %20 = fadd double %.07.i7, %19
  %21 = getelementptr inbounds i8, ptr %.sroa.02.06.i8, i64 8
  %.not.i9 = icmp eq ptr %21, %18
  br i1 %.not.i9, label %_ZSt10accumulateIN9__gnu_cxx17__normal_iteratorIPdSt6vectorIdSaIdEEEEdET0_T_S8_S7_.exit, label %.lr.ph.i6, !llvm.loop !15

_ZSt10accumulateIN9__gnu_cxx17__normal_iteratorIPdSt6vectorIdSaIdEEEEdET0_T_S8_S7_.exit: ; preds = %.lr.ph.i6, %.lr.ph.i, %14, %5
  %.0 = phi double [ 0.000000e+00, %5 ], [ 0.000000e+00, %14 ], [ %12, %.lr.ph.i ], [ %20, %.lr.ph.i6 ]
  ret double %.0
}